target datalayout = "e-m:e-p270:32:32-p271:32:32-p272:64:64-i64:64-i128:128-f80:128-n8:16:32:64-S128"
target triple = "x86_64-pc-linux-gnu"

%struct._PyUnicodeWriter = type { ptr, ptr, i32, i32, i64, i64, i64, i32, i8, i8 }

; Function Attrs: inlinehint nounwind uwtable
define internal void @PyUnicode_WRITE(i32 noundef %0, ptr noundef %1, i64 noundef %2, i32 noundef %3) #2 {
  %5 = alloca i32, align 4
  %6 = alloca ptr, align 8
  %7 = alloca i64, align 8
  %8 = alloca i32, align 4
  store i32 %0, ptr %5, align 4, !tbaa !190
  store ptr %1, ptr %6, align 8, !tbaa !180
  store i64 %2, ptr %7, align 8, !tbaa !185
  store i32 %3, ptr %8, align 4, !tbaa !190
  %9 = load i32, ptr %5, align 4, !tbaa !190
  %10 = icmp eq i32 %9, 1
  br i1 %10, label %11, label %17

11:                                               ; preds = %4
  %12 = load i32, ptr %8, align 4, !tbaa !190
  %13 = trunc i32 %12 to i8
  %14 = load ptr, ptr %6, align 8, !tbaa !180
  %15 = load i64, ptr %7, align 8, !tbaa !185
  %16 = getelementptr i8, ptr %14, i64 %15
  store i8 %13, ptr %16, align 1, !tbaa !191
  br label %32

17:                                               ; preds = %4
  %18 = load i32, ptr %5, align 4, !tbaa !190
  %19 = icmp eq i32 %18, 2
  br i1 %19, label %20, label %26

20:                                               ; preds = %17
  %21 = load i32, ptr %8, align 4, !tbaa !190
  %22 = trunc i32 %21 to i16
  %23 = load ptr, ptr %6, align 8, !tbaa !180
  %24 = load i64, ptr %7, align 8, !tbaa !185
  %25 = getelementptr i16, ptr %23, i64 %24
  store i16 %22, ptr %25, align 2, !tbaa !204
  br label %31

26:                                               ; preds = %17
  %27 = load i32, ptr %8, align 4, !tbaa !190
  %28 = load ptr, ptr %6, align 8, !tbaa !180
  %29 = load i64, ptr %7, align 8, !tbaa !185
  %30 = getelementptr i32, ptr %28, i64 %29
  store i32 %27, ptr %30, align 4, !tbaa !190
  br label %31

31:                                               ; preds = %26, %20
  br label %32

32:                                               ; preds = %31, %11
  ret void
}

; Function Attrs: inlinehint nounwind uwtable
define internal i32 @_PyUnicodeWriter_WriteCharInline(ptr noundef %0, i32 noundef %1) #2 {
  %3 = alloca i32, align 4
  %4 = alloca ptr, align 8
  %5 = alloca i32, align 4
  store ptr %0, ptr %4, align 8, !tbaa !180
  store i32 %1, ptr %5, align 4, !tbaa !190
  %6 = load i32, ptr %5, align 4, !tbaa !190
  %7 = load ptr, ptr %4, align 8, !tbaa !180
  %8 = getelementptr inbounds nuw %struct._PyUnicodeWriter, ptr %7, i32 0, i32 3
  %9 = load i32, ptr %8, align 4, !tbaa !232
  %10 = icmp ule i32 %6, %9
  br i1 %10, label %11, label %21

11:                                               ; preds = %2
  %12 = load ptr, ptr %4, align 8, !tbaa !180
  %13 = getelementptr inbounds nuw %struct._PyUnicodeWriter, ptr %12, i32 0, i32 4
  %14 = load i64, ptr %13, align 8, !tbaa !234
  %15 = load ptr, ptr %4, align 8, !tbaa !180
  %16 = getelementptr inbounds nuw %struct._PyUnicodeWriter, ptr %15, i32 0, i32 5
  %17 = load i64, ptr %16, align 8, !tbaa !235
  %18 = sub i64 %14, %17
  %19 = icmp sle i64 1, %18
  br i1 %19, label %20, label %21

20:                                               ; preds = %11
  br label %25

21:                                               ; preds = %11, %2
  %22 = load ptr, ptr %4, align 8, !tbaa !180
  %23 = load i32, ptr %5, align 4, !tbaa !190
  %24 = call i32 @_PyUnicodeWriter_PrepareInternal(ptr noundef %22, i64 noundef 1, i32 noundef %23)
  br label %25

25:                                               ; preds = %21, %20
  %26 = phi i32 [ 0, %20 ], [ %24, %21 ]
  %27 = icmp slt i32 %26, 0
  br i1 %27, label %28, label %29

28:                                               ; preds = %25
  store i32 -1, ptr %3, align 4
  br label %44

29:                                               ; preds = %25
  %30 = load ptr, ptr %4, align 8, !tbaa !180
  %31 = getelementptr inbounds nuw %struct._PyUnicodeWriter, ptr %30, i32 0, i32 2
  %32 = load i32, ptr %31, align 8, !tbaa !236
  %33 = load ptr, ptr %4, align 8, !tbaa !180
  %34 = getelementptr inbounds nuw %struct._PyUnicodeWriter, ptr %33, i32 0, i32 1
  %35 = load ptr, ptr %34, align 8, !tbaa !237
  %36 = load ptr, ptr %4, align 8, !tbaa !180
  %37 = getelementptr inbounds nuw %struct._PyUnicodeWriter, ptr %36, i32 0, i32 5
  %38 = load i64, ptr %37, align 8, !tbaa !235
  %39 = load i32, ptr %5, align 4, !tbaa !190
  call void @PyUnicode_WRITE(i32 noundef %32, ptr noundef %35, i64 noundef %38, i32 noundef %39)
  %40 = load ptr, ptr %4, align 8, !tbaa !180
  %41 = getelementptr inbounds nuw %struct._PyUnicodeWriter, ptr %40, i32 0, i32 5
  %42 = load i64, ptr %41, align 8, !tbaa !235
  %43 = add i64 %42, 1
  store i64 %43, ptr %41, align 8, !tbaa !235
  store i32 0, ptr %3, align 4
  br label %44

44:                                               ; preds = %29, %28
  %45 = load i32, ptr %3, align 4
  ret i32 %45
}

; Function Attrs: nounwind uwtable
define dso_local i32 @_PyUnicodeWriter_WriteChar(ptr noundef %0, i32 noundef %1) #0 {
  %3 = alloca ptr, align 8
  %4 = alloca i32, align 4
  store ptr %0, ptr %3, align 8, !tbaa !180
  store i32 %1, ptr %4, align 4, !tbaa !190
  %5 = load ptr, ptr %3, align 8, !tbaa !180
  %6 = load i32, ptr %4, align 4, !tbaa !190
  %7 = call i32 @_PyUnicodeWriter_WriteCharInline(ptr noundef %5, i32 noundef %6)
  ret i32 %7
}