; Function Attrs: nounwind uwtable
define dso_local range(i32 -1, 1) i32 @_PyUnicodeWriter_WriteChar(ptr noundef captures(none) %0, i32 noundef %1) local_unnamed_addr #0 {
  %3 = getelementptr inbounds nuw i8, ptr %0, i64 20
  %4 = load i32, ptr %3, align 4, !tbaa !222
  %.not.i = icmp ugt i32 %1, %4
  br i1 %.not.i, label %12, label %5

5:                                                ; preds = %2
  %6 = getelementptr inbounds nuw i8, ptr %0, i64 24
  %7 = load i64, ptr %6, align 8, !tbaa !224
  %8 = getelementptr inbounds nuw i8, ptr %0, i64 32
  %9 = load i64, ptr %8, align 8, !tbaa !225
  %10 = sub i64 %7, %9
  %11 = icmp sgt i64 %10, 0
  br i1 %11, label %.critedge.i, label %12

12:                                               ; preds = %5, %2
  %13 = tail call i32 @_PyUnicodeWriter_PrepareInternal(ptr noundef nonnull %0, i64 noundef 1, i32 noundef %1)
  %14 = icmp slt i32 %13, 0
  br i1 %14, label %_PyUnicodeWriter_WriteCharInline.exit, label %..critedge_crit_edge.i

..critedge_crit_edge.i:                           ; preds = %12
  %.phi.trans.insert.i = getelementptr inbounds nuw i8, ptr %0, i64 32
  %.pre.i = load i64, ptr %.phi.trans.insert.i, align 8, !tbaa !225
  br label %.critedge.i

.critedge.i:                                      ; preds = %..critedge_crit_edge.i, %5
  %15 = phi i64 [ %.pre.i, %..critedge_crit_edge.i ], [ %9, %5 ]
  %16 = getelementptr inbounds nuw i8, ptr %0, i64 16
  %17 = load i32, ptr %16, align 8, !tbaa !226
  %18 = getelementptr inbounds nuw i8, ptr %0, i64 8
  %19 = load ptr, ptr %18, align 8, !tbaa !227
  %20 = getelementptr inbounds nuw i8, ptr %0, i64 32
  switch i32 %17, label %27 [
    i32 1, label %21
    i32 2, label %24
  ]

21:                                               ; preds = %.critedge.i
  %22 = trunc i32 %1 to i8
  %23 = getelementptr i8, ptr %19, i64 %15
  store i8 %22, ptr %23, align 1, !tbaa !195
  %.pre11.i = load i64, ptr %20, align 8, !tbaa !225
  br label %PyUnicode_WRITE.exit.i

24:                                               ; preds = %.critedge.i
  %25 = trunc i32 %1 to i16
  %26 = getelementptr i16, ptr %19, i64 %15
  store i16 %25, ptr %26, align 2, !tbaa !199
  br label %PyUnicode_WRITE.exit.i

27:                                               ; preds = %.critedge.i
  %28 = getelementptr i32, ptr %19, i64 %15
  store i32 %1, ptr %28, align 4, !tbaa !200
  br label %PyUnicode_WRITE.exit.i

PyUnicode_WRITE.exit.i:                           ; preds = %27, %24, %21
  %29 = phi i64 [ %.pre11.i, %21 ], [ %15, %24 ], [ %15, %27 ]
  %30 = add i64 %29, 1
  store i64 %30, ptr %20, align 8, !tbaa !225
  br label %_PyUnicodeWriter_WriteCharInline.exit

_PyUnicodeWriter_WriteCharInline.exit:            ; preds = %12, %PyUnicode_WRITE.exit.i
  %.0.i = phi i32 [ 0, %PyUnicode_WRITE.exit.i ], [ -1, %12 ]
  ret i32 %.0.i
}